target datalayout = "e-m:e-p270:32:32-p271:32:32-p272:64:64-i64:64-i128:128-f80:128-n8:16:32:64-S128"
target triple = "x86_64-pc-linux-gnu"

%struct._zend_executor_globals = type { %struct._zval_struct, %struct._zval_struct, [32 x ptr], ptr, ptr, %struct._zend_array, %struct._zend_array, ptr, i32, i32, ptr, ptr, ptr, ptr, ptr, ptr, i64, ptr, ptr, i32, i32, i64, i32, i32, i32, i8, i8, %struct.zend_atomic_bool_s, %struct.zend_atomic_bool_s, ptr, i64, ptr, ptr, %struct._zend_array, %struct._zend_array, i32, i8, %struct._zval_struct, %struct._zval_struct, %struct._zend_stack, %struct._zend_stack, %struct._zend_stack, ptr, i32, i32, i64, ptr, ptr, ptr, %struct._zend_objects_store, ptr, ptr, ptr, [3 x %struct._zend_op], ptr, i8, i8, i64, i32, i32, ptr, [16 x %struct._HashTableIterator], ptr, %union._zend_function, %struct._zend_op, %struct._zend_array, i64, %struct.zend_get_gc_buffer, ptr, ptr, ptr, i64, i8, i32, ptr, ptr, i64, %struct._zend_call_stack, i64, i64, [6 x ptr] }
%struct.zend_atomic_bool_s = type { i8 }
%struct._zval_struct = type { %union._zend_value, %union.anon, %union.anon.2 }
%union._zend_value = type { i64 }
%union.anon = type { i32 }
%union.anon.2 = type { i32 }
%struct._zend_stack = type { i32, i32, i32, ptr }
%struct._zend_objects_store = type { ptr, i32, i32, i32 }
%struct._HashTableIterator = type { ptr, i32, i32 }
%union._zend_function = type { %struct._zend_op_array }
%struct._zend_op_array = type { i8, [3 x i8], i32, ptr, ptr, ptr, i32, i32, ptr, ptr, ptr, ptr, i32, i32, i32, i32, ptr, ptr, ptr, ptr, ptr, i32, i32, ptr, ptr, ptr, i32, i32, i32, i32, ptr, ptr, [6 x ptr] }
%struct._zend_op = type { ptr, %union._znode_op, %union._znode_op, %union._znode_op, i32, i32, i8, i8, i8, i8 }
%union._znode_op = type { i32 }
%struct._zend_array = type { %struct._zend_refcounted_h, %union.anon.4, i32, %union.anon.6, i32, i32, i32, i32, i64, ptr }
%struct._zend_refcounted_h = type { i32, %union.anon.3 }
%union.anon.3 = type { i32 }
%union.anon.4 = type { i32 }
%union.anon.6 = type { ptr }
%struct.zend_get_gc_buffer = type { ptr, ptr, ptr }
%struct._zend_call_stack = type { ptr, i64 }
%struct._zend_object = type { %struct._zend_refcounted_h, i32, ptr, ptr, ptr, [1 x %struct._zval_struct] }
%struct._zend_object_handlers = type { i32, ptr, ptr, ptr, ptr, ptr, ptr, ptr, ptr, ptr, ptr, ptr, ptr, ptr, ptr, ptr, ptr, ptr, ptr, ptr, ptr, ptr, ptr, ptr, ptr }
%struct._zend_class_entry = type { i8, ptr, %union.anon.8, i32, i32, i32, i32, ptr, ptr, ptr, %struct._zend_array, %struct._zend_array, %struct._zend_array, ptr, ptr, ptr, ptr, ptr, ptr, ptr, ptr, ptr, ptr, ptr, ptr, ptr, ptr, ptr, ptr, ptr, ptr, ptr, %union.anon.9, ptr, ptr, ptr, ptr, i32, i32, %union.anon.10, ptr, ptr, ptr, ptr, i32, ptr, ptr, %union.anon.11 }
%union.anon.8 = type { ptr }
%union.anon.9 = type { ptr }
%union.anon.10 = type { ptr }
%union.anon.11 = type { %struct.anon.12 }
%struct.anon.12 = type { ptr, i32, i32 }
%struct._zend_refcounted = type { %struct._zend_refcounted_h }

@executor_globals = external global %struct._zend_executor_globals, align 8

; Function Attrs: nounwind uwtable
define void @zend_objects_store_del(ptr noundef %0) #0 {
  %2 = alloca ptr, align 8
  %3 = alloca ptr, align 8
  %4 = alloca i32, align 4
  %5 = alloca ptr, align 8
  %6 = alloca i32, align 4
  %7 = alloca i32, align 4
  %8 = alloca ptr, align 8
  %9 = alloca i32, align 4
  %10 = alloca i32, align 4
  %11 = alloca ptr, align 8
  %12 = alloca i32, align 4
  %13 = alloca ptr, align 8
  %14 = alloca ptr, align 8
  store ptr %0, ptr %11, align 8
  %15 = load ptr, ptr %11, align 8
  %16 = getelementptr inbounds %struct._zend_object, ptr %15, i32 0, i32 0
  %17 = getelementptr inbounds %struct._zend_refcounted_h, ptr %16, i32 0, i32 1
  %18 = load i32, ptr %17, align 4
  store i32 %18, ptr %7, align 4
  %19 = load i32, ptr %7, align 4
  %20 = and i32 %19, 15
  %21 = trunc i32 %20 to i8
  %22 = zext i8 %21 to i32
  %23 = icmp eq i32 %22, 1
  %24 = xor i1 %23, true
  %25 = xor i1 %24, true
  %26 = zext i1 %25 to i32
  %27 = sext i32 %26 to i64
  %28 = icmp ne i64 %27, 0
  br i1 %28, label %29, label %30

29:                                               ; preds = %1
  br label %172

30:                                               ; preds = %1
  %31 = load ptr, ptr %11, align 8
  %32 = getelementptr inbounds %struct._zend_object, ptr %31, i32 0, i32 0
  %33 = getelementptr inbounds %struct._zend_refcounted_h, ptr %32, i32 0, i32 1
  %34 = load i32, ptr %33, align 4
  store i32 %34, ptr %9, align 4
  %35 = load i32, ptr %9, align 4
  %36 = and i32 %35, 1008
  %37 = and i32 %36, 256
  %38 = icmp ne i32 %37, 0
  br i1 %38, label %80, label %39

39:                                               ; preds = %30
  br label %40

40:                                               ; preds = %39
  %41 = load ptr, ptr %11, align 8
  %42 = getelementptr inbounds %struct._zend_object, ptr %41, i32 0, i32 0
  %43 = getelementptr inbounds %struct._zend_refcounted_h, ptr %42, i32 0, i32 1
  %44 = load i32, ptr %43, align 4
  %45 = or i32 %44, 256
  store i32 %45, ptr %43, align 4
  br label %46

46:                                               ; preds = %40
  %47 = load ptr, ptr %11, align 8
  %48 = getelementptr inbounds %struct._zend_object, ptr %47, i32 0, i32 3
  %49 = load ptr, ptr %48, align 8
  %50 = getelementptr inbounds %struct._zend_object_handlers, ptr %49, i32 0, i32 2
  %51 = load ptr, ptr %50, align 8
  %52 = icmp ne ptr %51, @zend_objects_destroy_object
  br i1 %52, label %60, label %53

53:                                               ; preds = %46
  %54 = load ptr, ptr %11, align 8
  %55 = getelementptr inbounds %struct._zend_object, ptr %54, i32 0, i32 2
  %56 = load ptr, ptr %55, align 8
  %57 = getelementptr inbounds %struct._zend_class_entry, ptr %56, i32 0, i32 17
  %58 = load ptr, ptr %57, align 8
  %59 = icmp ne ptr %58, null
  br i1 %59, label %60, label %79

60:                                               ; preds = %53, %46
  call void @zend_fiber_switch_block()
  %61 = load ptr, ptr %11, align 8
  %62 = getelementptr inbounds %struct._zend_object, ptr %61, i32 0, i32 0
  store ptr %62, ptr %3, align 8
  store i32 1, ptr %4, align 4
  %63 = load i32, ptr %4, align 4
  %64 = load ptr, ptr %3, align 8
  store i32 %63, ptr %64, align 4
  %65 = load ptr, ptr %11, align 8
  %66 = getelementptr inbounds %struct._zend_object, ptr %65, i32 0, i32 3
  %67 = load ptr, ptr %66, align 8
  %68 = getelementptr inbounds %struct._zend_object_handlers, ptr %67, i32 0, i32 2
  %69 = load ptr, ptr %68, align 8
  %70 = load ptr, ptr %11, align 8
  call void %69(ptr noundef %70)
  %71 = load ptr, ptr %11, align 8
  %72 = getelementptr inbounds %struct._zend_object, ptr %71, i32 0, i32 0
  store ptr %72, ptr %8, align 8
  %73 = load ptr, ptr %8, align 8
  %74 = load i32, ptr %73, align 4
  %75 = icmp ugt i32 %74, 0
  call void @llvm.assume(i1 %75)
  %76 = load ptr, ptr %8, align 8
  %77 = load i32, ptr %76, align 4
  %78 = add i32 %77, -1
  store i32 %78, ptr %76, align 4
  call void @zend_fiber_switch_unblock()
  br label %79

79:                                               ; preds = %60, %53
  br label %80

80:                                               ; preds = %79, %30
  %81 = load ptr, ptr %11, align 8
  %82 = getelementptr inbounds %struct._zend_object, ptr %81, i32 0, i32 0
  store ptr %82, ptr %2, align 8
  %83 = load ptr, ptr %2, align 8
  %84 = load i32, ptr %83, align 4
  %85 = icmp eq i32 %84, 0
  br i1 %85, label %86, label %172

86:                                               ; preds = %80
  %87 = load ptr, ptr %11, align 8
  %88 = getelementptr inbounds %struct._zend_object, ptr %87, i32 0, i32 1
  %89 = load i32, ptr %88, align 8
  store i32 %89, ptr %12, align 4
  %90 = load ptr, ptr getelementptr inbounds (%struct._zend_executor_globals, ptr @executor_globals, i32 0, i32 49), align 8
  %91 = icmp ne ptr %90, null
  call void @llvm.assume(i1 %91)
  %92 = load ptr, ptr getelementptr inbounds (%struct._zend_executor_globals, ptr @executor_globals, i32 0, i32 49), align 8
  %93 = load i32, ptr %12, align 4
  %94 = zext i32 %93 to i64
  %95 = getelementptr inbounds ptr, ptr %92, i64 %94
  %96 = load ptr, ptr %95, align 8
  %97 = ptrtoint ptr %96 to i64
  %98 = and i64 %97, 1
  %99 = icmp ne i64 %98, 0
  %100 = xor i1 %99, true
  call void @llvm.assume(i1 %100)
  %101 = load ptr, ptr %11, align 8
  %102 = ptrtoint ptr %101 to i64
  %103 = or i64 %102, 1
  %104 = inttoptr i64 %103 to ptr
  %105 = load ptr, ptr getelementptr inbounds (%struct._zend_executor_globals, ptr @executor_globals, i32 0, i32 49), align 8
  %106 = load i32, ptr %12, align 4
  %107 = zext i32 %106 to i64
  %108 = getelementptr inbounds ptr, ptr %105, i64 %107
  store ptr %104, ptr %108, align 8
  %109 = load ptr, ptr %11, align 8
  %110 = getelementptr inbounds %struct._zend_object, ptr %109, i32 0, i32 0
  %111 = getelementptr inbounds %struct._zend_refcounted_h, ptr %110, i32 0, i32 1
  %112 = load i32, ptr %111, align 4
  store i32 %112, ptr %10, align 4
  %113 = load i32, ptr %10, align 4
  %114 = and i32 %113, 1008
  %115 = and i32 %114, 512
  %116 = icmp ne i32 %115, 0
  br i1 %116, label %135, label %117

117:                                              ; preds = %86
  br label %118

118:                                              ; preds = %117
  %119 = load ptr, ptr %11, align 8
  %120 = getelementptr inbounds %struct._zend_object, ptr %119, i32 0, i32 0
  %121 = getelementptr inbounds %struct._zend_refcounted_h, ptr %120, i32 0, i32 1
  %122 = load i32, ptr %121, align 4
  %123 = or i32 %122, 512
  store i32 %123, ptr %121, align 4
  br label %124

124:                                              ; preds = %118
  %125 = load ptr, ptr %11, align 8
  %126 = getelementptr inbounds %struct._zend_object, ptr %125, i32 0, i32 0
  store ptr %126, ptr %5, align 8
  store i32 1, ptr %6, align 4
  %127 = load i32, ptr %6, align 4
  %128 = load ptr, ptr %5, align 8
  store i32 %127, ptr %128, align 4
  %129 = load ptr, ptr %11, align 8
  %130 = getelementptr inbounds %struct._zend_object, ptr %129, i32 0, i32 3
  %131 = load ptr, ptr %130, align 8
  %132 = getelementptr inbounds %struct._zend_object_handlers, ptr %131, i32 0, i32 1
  %133 = load ptr, ptr %132, align 8
  %134 = load ptr, ptr %11, align 8
  call void %133(ptr noundef %134)
  br label %135

135:                                              ; preds = %124, %86
  %136 = load ptr, ptr %11, align 8
  %137 = load ptr, ptr %11, align 8
  %138 = getelementptr inbounds %struct._zend_object, ptr %137, i32 0, i32 3
  %139 = load ptr, ptr %138, align 8
  %140 = getelementptr inbounds %struct._zend_object_handlers, ptr %139, i32 0, i32 0
  %141 = load i32, ptr %140, align 8
  %142 = sext i32 %141 to i64
  %143 = sub i64 0, %142
  %144 = getelementptr inbounds i8, ptr %136, i64 %143
  store ptr %144, ptr %13, align 8
  br label %145

145:                                              ; preds = %135
  %146 = load ptr, ptr %11, align 8
  store ptr %146, ptr %14, align 8
  %147 = load ptr, ptr %14, align 8
  %148 = getelementptr inbounds %struct._zend_refcounted, ptr %147, i32 0, i32 0
  %149 = getelementptr inbounds %struct._zend_refcounted_h, ptr %148, i32 0, i32 1
  %150 = load i32, ptr %149, align 4
  %151 = and i32 %150, -1024
  %152 = icmp ne i32 %151, 0
  br i1 %152, label %153, label %155

153:                                              ; preds = %145
  %154 = load ptr, ptr %14, align 8
  call void @gc_remove_from_buffer(ptr noundef %154)
  br label %155

155:                                              ; preds = %153, %145
  br label %156

156:                                              ; preds = %155
  %157 = load ptr, ptr %13, align 8
  call void @_efree(ptr noundef %157)
  br label %158

158:                                              ; preds = %156
  br label %159

159:                                              ; preds = %158
  %160 = load i32, ptr getelementptr inbounds (%struct._zend_executor_globals, ptr @executor_globals, i32 0, i32 49, i32 3), align 8
  %161 = sext i32 %160 to i64
  %162 = shl i64 %161, 1
  %163 = or i64 %162, 1
  %164 = inttoptr i64 %163 to ptr
  %165 = load ptr, ptr getelementptr inbounds (%struct._zend_executor_globals, ptr @executor_globals, i32 0, i32 49), align 8
  %166 = load i32, ptr %12, align 4
  %167 = zext i32 %166 to i64
  %168 = getelementptr inbounds ptr, ptr %165, i64 %167
  store ptr %164, ptr %168, align 8
  br label %169

169:                                              ; preds = %159
  %170 = load i32, ptr %12, align 4
  store i32 %170, ptr getelementptr inbounds (%struct._zend_executor_globals, ptr @executor_globals, i32 0, i32 49, i32 3), align 8
  br label %171

171:                                              ; preds = %169
  br label %172

172:                                              ; preds = %171, %80, %29
  ret void
}