; Function Attrs: nounwind uwtable
define void @zend_objects_store_del(ptr noundef %0) local_unnamed_addr #0 {
  %2 = getelementptr inbounds i8, ptr %0, i64 4
  %3 = load i32, ptr %2, align 4
  %4 = and i32 %3, 15
  %5 = icmp eq i32 %4, 1
  br i1 %5, label %66, label %6

6:                                                ; preds = %1
  %7 = and i32 %3, 256
  %.not = icmp eq i32 %7, 0
  br i1 %.not, label %8, label %26

8:                                                ; preds = %6
  %9 = or disjoint i32 %3, 256
  store i32 %9, ptr %2, align 4
  %10 = getelementptr inbounds i8, ptr %0, i64 24
  %11 = load ptr, ptr %10, align 8
  %12 = getelementptr inbounds i8, ptr %11, i64 16
  %13 = load ptr, ptr %12, align 8
  %.not36 = icmp eq ptr %13, @zend_objects_destroy_object
  br i1 %.not36, label %14, label %19

14:                                               ; preds = %8
  %15 = getelementptr inbounds i8, ptr %0, i64 16
  %16 = load ptr, ptr %15, align 8
  %17 = getelementptr inbounds i8, ptr %16, i64 264
  %18 = load ptr, ptr %17, align 8
  %.not37 = icmp eq ptr %18, null
  br i1 %.not37, label %26, label %19

19:                                               ; preds = %14, %8
  tail call void @zend_fiber_switch_block() #7
  store i32 1, ptr %0, align 4
  %20 = load ptr, ptr %10, align 8
  %21 = getelementptr inbounds i8, ptr %20, i64 16
  %22 = load ptr, ptr %21, align 8
  tail call void %22(ptr noundef nonnull %0) #7
  %23 = load i32, ptr %0, align 4
  %24 = icmp ne i32 %23, 0
  tail call void @llvm.assume(i1 %24)
  %25 = add i32 %23, -1
  store i32 %25, ptr %0, align 4
  tail call void @zend_fiber_switch_unblock() #7
  br label %26

26:                                               ; preds = %14, %19, %6
  %27 = load i32, ptr %0, align 4
  %28 = icmp eq i32 %27, 0
  br i1 %28, label %29, label %66

29:                                               ; preds = %26
  %30 = getelementptr inbounds i8, ptr %0, i64 8
  %31 = load i32, ptr %30, align 8
  %32 = load ptr, ptr getelementptr inbounds (%struct._zend_executor_globals, ptr @executor_globals, i64 0, i32 49), align 8, !nonnull !4, !noundef !4
  %33 = zext i32 %31 to i64
  %34 = getelementptr inbounds ptr, ptr %32, i64 %33
  %35 = load ptr, ptr %34, align 8
  %36 = ptrtoint ptr %35 to i64
  %37 = and i64 %36, 1
  %.not38 = icmp eq i64 %37, 0
  tail call void @llvm.assume(i1 %.not38)
  %38 = ptrtoint ptr %0 to i64
  %39 = or i64 %38, 1
  %40 = inttoptr i64 %39 to ptr
  store ptr %40, ptr %34, align 8
  %41 = load i32, ptr %2, align 4
  %42 = and i32 %41, 512
  %.not39 = icmp eq i32 %42, 0
  br i1 %.not39, label %43, label %49

43:                                               ; preds = %29
  %44 = or disjoint i32 %41, 512
  store i32 %44, ptr %2, align 4
  store i32 1, ptr %0, align 4
  %45 = getelementptr inbounds i8, ptr %0, i64 24
  %46 = load ptr, ptr %45, align 8
  %47 = getelementptr inbounds i8, ptr %46, i64 8
  %48 = load ptr, ptr %47, align 8
  tail call void %48(ptr noundef nonnull %0) #7
  %.pr = load i32, ptr %2, align 4
  br label %49

49:                                               ; preds = %43, %29
  %50 = phi i32 [ %.pr, %43 ], [ %41, %29 ]
  %51 = getelementptr inbounds i8, ptr %0, i64 24
  %52 = load ptr, ptr %51, align 8
  %53 = load i32, ptr %52, align 8
  %54 = sext i32 %53 to i64
  %55 = sub nsw i64 0, %54
  %56 = getelementptr inbounds i8, ptr %0, i64 %55
  %.not40 = icmp ult i32 %50, 1024
  br i1 %.not40, label %58, label %57

57:                                               ; preds = %49
  tail call void @gc_remove_from_buffer(ptr noundef nonnull %0) #7
  br label %58

58:                                               ; preds = %49, %57
  tail call void @_efree(ptr noundef nonnull %56) #7
  %59 = load i32, ptr getelementptr inbounds (%struct._zend_executor_globals, ptr @executor_globals, i64 0, i32 49, i32 3), align 8
  %60 = sext i32 %59 to i64
  %61 = shl nsw i64 %60, 1
  %62 = or disjoint i64 %61, 1
  %63 = inttoptr i64 %62 to ptr
  %64 = load ptr, ptr getelementptr inbounds (%struct._zend_executor_globals, ptr @executor_globals, i64 0, i32 49), align 8
  %65 = getelementptr inbounds ptr, ptr %64, i64 %33
  store ptr %63, ptr %65, align 8
  store i32 %31, ptr getelementptr inbounds (%struct._zend_executor_globals, ptr @executor_globals, i64 0, i32 49, i32 3), align 8
  br label %66

66:                                               ; preds = %1, %58, %26
  ret void
}